target datalayout = "e-m:e-p270:32:32-p271:32:32-p272:64:64-i64:64-i128:128-f80:128-n8:16:32:64-S128"
target triple = "x86_64-pc-linux-gnu"

%struct.CoeffVLCs = type { [2 x ptr], [2 x ptr], [2 x ptr], ptr }

@intra_coeff_vlc = internal global [5 x %struct.CoeffVLCs] zeroinitializer, align 16
@inter_coeff_vlc = internal global [7 x %struct.CoeffVLCs] zeroinitializer, align 16
@rv60_qp_to_idx = internal constant [64 x i8] c"\00\00\00\00\00\00\00\01\01\01\01\02\02\02\02\03\03\03\03\04\04\04\04\05\05\05\05\06\06\06\06\00\00\00\00\00\00\00\00\00\00\00\01\01\01\01\01\01\02\02\02\02\03\03\03\03\03\04\04\04\04\04\00\00", align 16
@rv60_chroma_quant_dc = internal constant [32 x i8] c"\00\00\00\01\02\03\04\05\06\07\08\09\0A\0B\0C\0D\0E\0F\0F\10\11\12\12\13\14\14\15\15\16\16\17\17", align 16
@rv60_chroma_quant_ac = internal constant [32 x i8] c"\00\01\02\03\04\05\06\07\08\09\0A\0B\0C\0D\0E\0F\10\11\11\12\13\14\14\15\16\16\17\17\18\18\19\19", align 16

; Function Attrs: nounwind uwtable
define internal i32 @get_c4x4_set(i32 noundef %0, i32 noundef %1) #1 {
  %3 = alloca i32, align 4
  %4 = alloca i32, align 4
  %5 = alloca i32, align 4
  store i32 %0, ptr %4, align 4, !tbaa !36
  store i32 %1, ptr %5, align 4, !tbaa !36
  %6 = load i32, ptr %5, align 4, !tbaa !36
  %7 = icmp ne i32 %6, 0
  br i1 %7, label %8, label %15

8:                                                ; preds = %2
  %9 = load i32, ptr %4, align 4, !tbaa !36
  %10 = add nsw i32 %9, 32
  %11 = sext i32 %10 to i64
  %12 = getelementptr inbounds [64 x i8], ptr @rv60_qp_to_idx, i64 0, i64 %11
  %13 = load i8, ptr %12, align 1, !tbaa !48
  %14 = zext i8 %13 to i32
  store i32 %14, ptr %3, align 4
  br label %21

15:                                               ; preds = %2
  %16 = load i32, ptr %4, align 4, !tbaa !36
  %17 = sext i32 %16 to i64
  %18 = getelementptr inbounds [64 x i8], ptr @rv60_qp_to_idx, i64 0, i64 %17
  %19 = load i8, ptr %18, align 1, !tbaa !48
  %20 = zext i8 %19 to i32
  store i32 %20, ptr %3, align 4
  br label %21

21:                                               ; preds = %15, %8
  %22 = load i32, ptr %3, align 4
  ret i32 %22
}

; Function Attrs: nounwind uwtable
define internal void @decode_cu_4x4in16x16(ptr noundef %0, i32 noundef %1, i32 noundef %2, i32 noundef %3, ptr noundef %4, ptr noundef %5, ptr noundef %6, i32 noundef %7) #1 {
  %9 = alloca ptr, align 8
  %10 = alloca i32, align 4
  %11 = alloca i32, align 4
  %12 = alloca i32, align 4
  %13 = alloca ptr, align 8
  %14 = alloca ptr, align 8
  %15 = alloca ptr, align 8
  %16 = alloca i32, align 4
  %17 = alloca i32, align 4
  %18 = alloca ptr, align 8
  %19 = alloca i32, align 4
  %20 = alloca i32, align 4
  %21 = alloca i32, align 4
  %22 = alloca i32, align 4
  %23 = alloca i32, align 4
  %24 = alloca i32, align 4
  store ptr %0, ptr %9, align 8, !tbaa !92
  store i32 %1, ptr %10, align 4, !tbaa !36
  store i32 %2, ptr %11, align 4, !tbaa !36
  store i32 %3, ptr %12, align 4, !tbaa !36
  store ptr %4, ptr %13, align 8, !tbaa !204
  store ptr %5, ptr %14, align 8, !tbaa !204
  store ptr %6, ptr %15, align 8, !tbaa !204
  store i32 %7, ptr %16, align 4, !tbaa !36
  call void @llvm.lifetime.start.p0(i64 4, ptr %17) #11
  %25 = load i32, ptr %12, align 4, !tbaa !36
  %26 = load i32, ptr %10, align 4, !tbaa !36
  %27 = call i32 @get_c4x4_set(i32 noundef %25, i32 noundef %26)
  store i32 %27, ptr %17, align 4, !tbaa !36
  call void @llvm.lifetime.start.p0(i64 8, ptr %18) #11
  %28 = load i32, ptr %10, align 4, !tbaa !36
  %29 = icmp ne i32 %28, 0
  br i1 %29, label %30, label %34

30:                                               ; preds = %8
  %31 = load i32, ptr %17, align 4, !tbaa !36
  %32 = sext i32 %31 to i64
  %33 = getelementptr inbounds [5 x %struct.CoeffVLCs], ptr @intra_coeff_vlc, i64 0, i64 %32
  br label %38

34:                                               ; preds = %8
  %35 = load i32, ptr %17, align 4, !tbaa !36
  %36 = sext i32 %35 to i64
  %37 = getelementptr inbounds [7 x %struct.CoeffVLCs], ptr @inter_coeff_vlc, i64 0, i64 %36
  br label %38

38:                                               ; preds = %34, %30
  %39 = phi ptr [ %33, %30 ], [ %37, %34 ]
  store ptr %39, ptr %18, align 8, !tbaa !87
  call void @llvm.lifetime.start.p0(i64 4, ptr %19) #11
  %40 = load i32, ptr %11, align 4, !tbaa !36
  %41 = sext i32 %40 to i64
  %42 = getelementptr inbounds [32 x i16], ptr @rv60_quants_b, i64 0, i64 %41
  %43 = load i16, ptr %42, align 2, !tbaa !153
  %44 = zext i16 %43 to i32
  store i32 %44, ptr %19, align 4, !tbaa !36
  call void @llvm.lifetime.start.p0(i64 4, ptr %20) #11
  %45 = load i32, ptr %11, align 4, !tbaa !36
  %46 = sext i32 %45 to i64
  %47 = getelementptr inbounds [32 x i8], ptr @rv60_chroma_quant_dc, i64 0, i64 %46
  %48 = load i8, ptr %47, align 1, !tbaa !48
  %49 = zext i8 %48 to i64
  %50 = getelementptr inbounds nuw [32 x i16], ptr @rv60_quants_b, i64 0, i64 %49
  %51 = load i16, ptr %50, align 2, !tbaa !153
  %52 = zext i16 %51 to i32
  store i32 %52, ptr %20, align 4, !tbaa !36
  call void @llvm.lifetime.start.p0(i64 4, ptr %21) #11
  %53 = load i32, ptr %11, align 4, !tbaa !36
  %54 = sext i32 %53 to i64
  %55 = getelementptr inbounds [32 x i8], ptr @rv60_chroma_quant_ac, i64 0, i64 %54
  %56 = load i8, ptr %55, align 1, !tbaa !48
  %57 = zext i8 %56 to i64
  %58 = getelementptr inbounds nuw [32 x i16], ptr @rv60_quants_b, i64 0, i64 %57
  %59 = load i16, ptr %58, align 2, !tbaa !153
  %60 = zext i16 %59 to i32
  store i32 %60, ptr %21, align 4, !tbaa !36
  %61 = load ptr, ptr %13, align 8, !tbaa !204
  call void @llvm.memset.p0.i64(ptr align 2 %61, i8 0, i64 512, i1 false)
  call void @llvm.lifetime.start.p0(i64 4, ptr %22) #11
  store i32 0, ptr %22, align 4, !tbaa !36
  br label %62

62:                                               ; preds = %82, %38
  %63 = load i32, ptr %22, align 4, !tbaa !36
  %64 = icmp slt i32 %63, 16
  br i1 %64, label %66, label %65

65:                                               ; preds = %62
  call void @llvm.lifetime.end.p0(i64 4, ptr %22) #11
  br label %85

66:                                               ; preds = %62
  %67 = load i32, ptr %16, align 4, !tbaa !36
  %68 = load i32, ptr %22, align 4, !tbaa !36
  %69 = ashr i32 %67, %68
  %70 = and i32 %69, 1
  %71 = icmp ne i32 %70, 0
  br i1 %71, label %72, label %81

72:                                               ; preds = %66
  %73 = load ptr, ptr %9, align 8, !tbaa !92
  %74 = load ptr, ptr %18, align 8, !tbaa !87
  %75 = load ptr, ptr %13, align 8, !tbaa !204
  %76 = load i32, ptr %22, align 4, !tbaa !36
  %77 = mul nsw i32 %76, 16
  %78 = sext i32 %77 to i64
  %79 = getelementptr inbounds i16, ptr %75, i64 %78
  %80 = load i32, ptr %19, align 4, !tbaa !36
  call void @decode_4x4_block(ptr noundef %73, ptr noundef %74, i32 noundef 1, ptr noundef %79, i32 noundef 4, i32 noundef %80)
  br label %81

81:                                               ; preds = %72, %66
  br label %82

82:                                               ; preds = %81
  %83 = load i32, ptr %22, align 4, !tbaa !36
  %84 = add nsw i32 %83, 1
  store i32 %84, ptr %22, align 4, !tbaa !36
  br label %62, !llvm.loop !205

85:                                               ; preds = %65
  %86 = load ptr, ptr %14, align 8, !tbaa !204
  call void @llvm.memset.p0.i64(ptr align 2 %86, i8 0, i64 128, i1 false)
  call void @llvm.lifetime.start.p0(i64 4, ptr %23) #11
  store i32 0, ptr %23, align 4, !tbaa !36
  br label %87

87:                                               ; preds = %109, %85
  %88 = load i32, ptr %23, align 4, !tbaa !36
  %89 = icmp slt i32 %88, 4
  br i1 %89, label %91, label %90

90:                                               ; preds = %87
  call void @llvm.lifetime.end.p0(i64 4, ptr %23) #11
  br label %112

91:                                               ; preds = %87
  %92 = load i32, ptr %16, align 4, !tbaa !36
  %93 = load i32, ptr %23, align 4, !tbaa !36
  %94 = add nsw i32 16, %93
  %95 = ashr i32 %92, %94
  %96 = and i32 %95, 1
  %97 = icmp ne i32 %96, 0
  br i1 %97, label %98, label %108

98:                                               ; preds = %91
  %99 = load ptr, ptr %9, align 8, !tbaa !92
  %100 = load ptr, ptr %18, align 8, !tbaa !87
  %101 = load ptr, ptr %14, align 8, !tbaa !204
  %102 = load i32, ptr %23, align 4, !tbaa !36
  %103 = mul nsw i32 %102, 16
  %104 = sext i32 %103 to i64
  %105 = getelementptr inbounds i16, ptr %101, i64 %104
  %106 = load i32, ptr %20, align 4, !tbaa !36
  %107 = load i32, ptr %21, align 4, !tbaa !36
  call void @decode_4x4_block_dc(ptr noundef %99, ptr noundef %100, i32 noundef 0, ptr noundef %105, i32 noundef 4, i32 noundef %106, i32 noundef %107)
  br label %108

108:                                              ; preds = %98, %91
  br label %109

109:                                              ; preds = %108
  %110 = load i32, ptr %23, align 4, !tbaa !36
  %111 = add nsw i32 %110, 1
  store i32 %111, ptr %23, align 4, !tbaa !36
  br label %87, !llvm.loop !206

112:                                              ; preds = %90
  %113 = load ptr, ptr %15, align 8, !tbaa !204
  call void @llvm.memset.p0.i64(ptr align 2 %113, i8 0, i64 128, i1 false)
  call void @llvm.lifetime.start.p0(i64 4, ptr %24) #11
  store i32 0, ptr %24, align 4, !tbaa !36
  br label %114

114:                                              ; preds = %136, %112
  %115 = load i32, ptr %24, align 4, !tbaa !36
  %116 = icmp slt i32 %115, 4
  br i1 %116, label %118, label %117

117:                                              ; preds = %114
  call void @llvm.lifetime.end.p0(i64 4, ptr %24) #11
  br label %139

118:                                              ; preds = %114
  %119 = load i32, ptr %16, align 4, !tbaa !36
  %120 = load i32, ptr %24, align 4, !tbaa !36
  %121 = add nsw i32 20, %120
  %122 = ashr i32 %119, %121
  %123 = and i32 %122, 1
  %124 = icmp ne i32 %123, 0
  br i1 %124, label %125, label %135

125:                                              ; preds = %118
  %126 = load ptr, ptr %9, align 8, !tbaa !92
  %127 = load ptr, ptr %18, align 8, !tbaa !87
  %128 = load ptr, ptr %15, align 8, !tbaa !204
  %129 = load i32, ptr %24, align 4, !tbaa !36
  %130 = mul nsw i32 %129, 16
  %131 = sext i32 %130 to i64
  %132 = getelementptr inbounds i16, ptr %128, i64 %131
  %133 = load i32, ptr %20, align 4, !tbaa !36
  %134 = load i32, ptr %21, align 4, !tbaa !36
  call void @decode_4x4_block_dc(ptr noundef %126, ptr noundef %127, i32 noundef 0, ptr noundef %132, i32 noundef 4, i32 noundef %133, i32 noundef %134)
  br label %135

135:                                              ; preds = %125, %118
  br label %136

136:                                              ; preds = %135
  %137 = load i32, ptr %24, align 4, !tbaa !36
  %138 = add nsw i32 %137, 1
  store i32 %138, ptr %24, align 4, !tbaa !36
  br label %114, !llvm.loop !207

139:                                              ; preds = %117
  call void @llvm.lifetime.end.p0(i64 4, ptr %21) #11
  call void @llvm.lifetime.end.p0(i64 4, ptr %20) #11
  call void @llvm.lifetime.end.p0(i64 4, ptr %19) #11
  call void @llvm.lifetime.end.p0(i64 8, ptr %18) #11
  call void @llvm.lifetime.end.p0(i64 4, ptr %17) #11
  ret void
}