; Function Attrs: nofree norecurse nosync nounwind memory(readwrite, inaccessiblemem: none) uwtable
define internal fastcc void @decode_cu_4x4in16x16(ptr noundef nonnull captures(none) %0, i32 noundef range(i32 0, 2) %1, i32 noundef range(i32 0, 32) %2, i32 noundef range(i32 0, -2147483648) %3, ptr noundef nonnull writeonly captures(none) initializes((0, 512)) %4, ptr noundef nonnull writeonly captures(none) %5, ptr noundef nonnull writeonly captures(none) %6, i32 noundef range(i32 1, 16777216) %7) unnamed_addr #6 {
  %.not.i = icmp eq i32 %1, 0
  %9 = add nuw nsw i32 %3, 32
  %.pn.in.i = select i1 %.not.i, i32 %3, i32 %9
  %.pn.i = zext nneg i32 %.pn.in.i to i64
  %.0.in.in.i = getelementptr inbounds nuw [64 x i8], ptr @rv60_qp_to_idx, i64 0, i64 %.pn.i
  %.0.in.i = load i8, ptr %.0.in.in.i, align 1, !tbaa !42
  %10 = zext i8 %.0.in.i to i64
  %11 = getelementptr inbounds nuw [5 x %struct.CoeffVLCs], ptr @intra_coeff_vlc, i64 0, i64 %10
  %12 = getelementptr inbounds nuw [7 x %struct.CoeffVLCs], ptr @inter_coeff_vlc, i64 0, i64 %10
  %13 = select i1 %.not.i, ptr %12, ptr %11
  %14 = zext nneg i32 %2 to i64
  %15 = getelementptr inbounds nuw [32 x i16], ptr @rv60_quants_b, i64 0, i64 %14
  %16 = load i16, ptr %15, align 2, !tbaa !151
  %17 = zext i16 %16 to i32
  %18 = getelementptr inbounds nuw [32 x i8], ptr @rv60_chroma_quant_dc, i64 0, i64 %14
  %19 = load i8, ptr %18, align 1, !tbaa !42
  %20 = zext i8 %19 to i64
  %21 = getelementptr inbounds nuw [32 x i16], ptr @rv60_quants_b, i64 0, i64 %20
  %22 = load i16, ptr %21, align 2, !tbaa !151
  %23 = getelementptr inbounds nuw [32 x i8], ptr @rv60_chroma_quant_ac, i64 0, i64 %14
  %24 = load i8, ptr %23, align 1, !tbaa !42
  %25 = zext i8 %24 to i64
  %26 = getelementptr inbounds nuw [32 x i16], ptr @rv60_quants_b, i64 0, i64 %25
  %27 = load i16, ptr %26, align 2, !tbaa !151
  tail call void @llvm.memset.p0.i64(ptr noundef nonnull align 2 dereferenceable(512) %4, i8 0, i64 512, i1 false)
  br label %31

28:                                               ; preds = %37
  %29 = zext i16 %22 to i32
  %30 = zext i16 %27 to i32
  tail call void @llvm.memset.p0.i64(ptr noundef nonnull align 2 dereferenceable(128) %5, i8 0, i64 128, i1 false)
  br label %39

31:                                               ; preds = %8, %37
  %indvars.iv = phi i64 [ 0, %8 ], [ %indvars.iv.next, %37 ]
  %32 = trunc nuw nsw i64 %indvars.iv to i32
  %33 = shl nuw nsw i32 1, %32
  %34 = and i32 %33, %7
  %.not43 = icmp eq i32 %34, 0
  br i1 %.not43, label %37, label %35

35:                                               ; preds = %31
  %.idx = shl nuw nsw i64 %indvars.iv, 5
  %36 = getelementptr inbounds nuw i8, ptr %4, i64 %.idx
  tail call fastcc void @decode_4x4_block(ptr noundef %0, ptr noundef nonnull %13, i32 noundef 1, ptr noundef %36, i32 noundef 4, i32 noundef %17)
  br label %37

37:                                               ; preds = %31, %35
  %indvars.iv.next = add nuw nsw i64 %indvars.iv, 1
  %exitcond.not = icmp eq i64 %indvars.iv.next, 16
  br i1 %exitcond.not, label %28, label %31, !llvm.loop !222

38:                                               ; preds = %45
  tail call void @llvm.memset.p0.i64(ptr noundef nonnull align 2 dereferenceable(128) %6, i8 0, i64 128, i1 false)
  br label %47

39:                                               ; preds = %28, %45
  %indvars.iv48 = phi i64 [ 0, %28 ], [ %indvars.iv.next49, %45 ]
  %40 = trunc nuw nsw i64 %indvars.iv48 to i32
  %41 = shl nuw nsw i32 65536, %40
  %42 = and i32 %41, %7
  %.not42 = icmp eq i32 %42, 0
  br i1 %.not42, label %45, label %43

43:                                               ; preds = %39
  %.idx56 = shl nuw nsw i64 %indvars.iv48, 5
  %44 = getelementptr inbounds nuw i8, ptr %5, i64 %.idx56
  tail call fastcc void @decode_4x4_block_dc(ptr noundef %0, ptr noundef nonnull %13, ptr noundef %44, i32 noundef 4, i32 noundef %29, i32 noundef %30)
  br label %45

45:                                               ; preds = %39, %43
  %indvars.iv.next49 = add nuw nsw i64 %indvars.iv48, 1
  %exitcond51.not = icmp eq i64 %indvars.iv.next49, 4
  br i1 %exitcond51.not, label %38, label %39, !llvm.loop !223

46:                                               ; preds = %53
  ret void

47:                                               ; preds = %38, %53
  %indvars.iv52 = phi i64 [ 0, %38 ], [ %indvars.iv.next53, %53 ]
  %48 = trunc nuw nsw i64 %indvars.iv52 to i32
  %49 = shl nuw nsw i32 1048576, %48
  %50 = and i32 %49, %7
  %.not41 = icmp eq i32 %50, 0
  br i1 %.not41, label %53, label %51

51:                                               ; preds = %47
  %.idx57 = shl nuw nsw i64 %indvars.iv52, 5
  %52 = getelementptr inbounds nuw i8, ptr %6, i64 %.idx57
  tail call fastcc void @decode_4x4_block_dc(ptr noundef %0, ptr noundef nonnull %13, ptr noundef %52, i32 noundef 4, i32 noundef %29, i32 noundef %30)
  br label %53

53:                                               ; preds = %47, %51
  %indvars.iv.next53 = add nuw nsw i64 %indvars.iv52, 1
  %exitcond55.not = icmp eq i64 %indvars.iv.next53, 4
  br i1 %exitcond55.not, label %46, label %47, !llvm.loop !224
}